target datalayout = "e-m:e-p270:32:32-p271:32:32-p272:64:64-i64:64-i128:128-f80:128-n8:16:32:64-S128"
target triple = "x86_64-pc-linux-gnu"

%"struct.std::_Rb_tree_header" = type { %"struct.std::_Rb_tree_node_base", i64 }
%"struct.std::_Rb_tree_node_base" = type { i32, ptr, ptr, ptr }
%struct.llama_model = type { i32, i32, %"class.std::__cxx11::basic_string", %struct.llama_hparams, %struct.llama_vocab, ptr, ptr, ptr, ptr, ptr, ptr, ptr, ptr, ptr, ptr, ptr, ptr, ptr, ptr, ptr, ptr, %"class.std::vector", %struct.llama_model_params, %"class.std::unordered_map", %"class.std::vector.18", %"class.std::vector.23", i64, i64, %"class.std::unique_ptr.28" }
%"class.std::__cxx11::basic_string" = type { %"struct.std::__cxx11::basic_string<char>::_Alloc_hider", i64, %union.anon }
%"struct.std::__cxx11::basic_string<char>::_Alloc_hider" = type { ptr }
%union.anon = type { i64, [8 x i8] }
%struct.llama_hparams = type { i8, i8, i8, i8, i32, i32, i32, i32, i32, i32, i32, i32, i32, i32, i32, %struct.llama_hparams_posnet, %struct.llama_hparams_convnext, %"struct.std::array", %"struct.std::array", %"struct.std::array", i32, i32, i32, i32, i32, i32, i32, float, i8, i32, float, float, float, float, float, i32, i32, i32, i32, i32, float, float, float, i32, float, %"struct.std::array.6", i32, i32, i32, i32, i8, float, float, float, float, float, float, i8, i8, i8, i32, i32, i32, i32 }
%struct.llama_hparams_posnet = type { i32, i32 }
%struct.llama_hparams_convnext = type { i32, i32 }
%"struct.std::array" = type { [512 x i32] }
%"struct.std::array.6" = type { [4 x i32] }
%struct.llama_vocab = type { %"class.std::unique_ptr" }
%"class.std::unique_ptr" = type { %"struct.std::__uniq_ptr_data" }
%"struct.std::__uniq_ptr_data" = type { %"class.std::__uniq_ptr_impl" }
%"class.std::__uniq_ptr_impl" = type { %"class.std::tuple" }
%"class.std::tuple" = type { %"struct.std::_Tuple_impl" }
%"struct.std::_Tuple_impl" = type { %"struct.std::_Head_base.8" }
%"struct.std::_Head_base.8" = type { ptr }
%"class.std::vector" = type { %"struct.std::_Vector_base" }
%"struct.std::_Vector_base" = type { %"struct.std::_Vector_base<llama_layer, std::allocator<llama_layer>>::_Vector_impl" }
%"struct.std::_Vector_base<llama_layer, std::allocator<llama_layer>>::_Vector_impl" = type { %"struct.std::_Vector_base<llama_layer, std::allocator<llama_layer>>::_Vector_impl_data" }
%"struct.std::_Vector_base<llama_layer, std::allocator<llama_layer>>::_Vector_impl_data" = type { ptr, ptr, ptr }
%struct.llama_model_params = type { ptr, i32, i32, i32, ptr, ptr, ptr, ptr, i8, i8, i8, i8 }
%"class.std::unordered_map" = type { %"class.std::_Hashtable" }
%"class.std::_Hashtable" = type { ptr, i64, %"struct.std::__detail::_Hash_node_base", i64, %"struct.std::__detail::_Prime_rehash_policy", ptr }
%"struct.std::__detail::_Hash_node_base" = type { ptr }
%"struct.std::__detail::_Prime_rehash_policy" = type { float, i64 }
%"class.std::vector.18" = type { %"struct.std::_Vector_base.19" }
%"struct.std::_Vector_base.19" = type { %"struct.std::_Vector_base<ggml_backend_device *, std::allocator<ggml_backend_device *>>::_Vector_impl" }
%"struct.std::_Vector_base<ggml_backend_device *, std::allocator<ggml_backend_device *>>::_Vector_impl" = type { %"struct.std::_Vector_base<ggml_backend_device *, std::allocator<ggml_backend_device *>>::_Vector_impl_data" }
%"struct.std::_Vector_base<ggml_backend_device *, std::allocator<ggml_backend_device *>>::_Vector_impl_data" = type { ptr, ptr, ptr }
%"class.std::vector.23" = type { %"struct.std::_Vector_base.24" }
%"struct.std::_Vector_base.24" = type { %"struct.std::_Vector_base<std::pair<std::__cxx11::basic_string<char>, ggml_tensor *>, std::allocator<std::pair<std::__cxx11::basic_string<char>, ggml_tensor *>>>::_Vector_impl" }
%"struct.std::_Vector_base<std::pair<std::__cxx11::basic_string<char>, ggml_tensor *>, std::allocator<std::pair<std::__cxx11::basic_string<char>, ggml_tensor *>>>::_Vector_impl" = type { %"struct.std::_Vector_base<std::pair<std::__cxx11::basic_string<char>, ggml_tensor *>, std::allocator<std::pair<std::__cxx11::basic_string<char>, ggml_tensor *>>>::_Vector_impl_data" }
%"struct.std::_Vector_base<std::pair<std::__cxx11::basic_string<char>, ggml_tensor *>, std::allocator<std::pair<std::__cxx11::basic_string<char>, ggml_tensor *>>>::_Vector_impl_data" = type { ptr, ptr, ptr }
%"class.std::unique_ptr.28" = type { %"struct.std::__uniq_ptr_data.29" }
%"struct.std::__uniq_ptr_data.29" = type { %"class.std::__uniq_ptr_impl.30" }
%"class.std::__uniq_ptr_impl.30" = type { %"class.std::tuple.31" }
%"class.std::tuple.31" = type { %"struct.std::_Tuple_impl.32" }
%"struct.std::_Tuple_impl.32" = type { %"struct.std::_Head_base.35" }
%"struct.std::_Head_base.35" = type { ptr }
%"class.std::vector.41" = type { %"struct.std::_Vector_base.42" }
%"struct.std::_Vector_base.42" = type { %"struct.std::_Vector_base<std::unique_ptr<llama_mmap>, std::allocator<std::unique_ptr<llama_mmap>>>::_Vector_impl" }
%"struct.std::_Vector_base<std::unique_ptr<llama_mmap>, std::allocator<std::unique_ptr<llama_mmap>>>::_Vector_impl" = type { %"struct.std::_Vector_base<std::unique_ptr<llama_mmap>, std::allocator<std::unique_ptr<llama_mmap>>>::_Vector_impl_data" }
%"struct.std::_Vector_base<std::unique_ptr<llama_mmap>, std::allocator<std::unique_ptr<llama_mmap>>>::_Vector_impl_data" = type { ptr, ptr, ptr }
%"class.std::vector.74" = type { %"struct.std::_Vector_base.75" }
%"struct.std::_Vector_base.75" = type { %"struct.std::_Vector_base<std::unique_ptr<ggml_context, ggml_context_deleter>, std::allocator<std::unique_ptr<ggml_context, ggml_context_deleter>>>::_Vector_impl" }
%"struct.std::_Vector_base<std::unique_ptr<ggml_context, ggml_context_deleter>, std::allocator<std::unique_ptr<ggml_context, ggml_context_deleter>>>::_Vector_impl" = type { %"struct.std::_Vector_base<std::unique_ptr<ggml_context, ggml_context_deleter>, std::allocator<std::unique_ptr<ggml_context, ggml_context_deleter>>>::_Vector_impl_data" }
%"struct.std::_Vector_base<std::unique_ptr<ggml_context, ggml_context_deleter>, std::allocator<std::unique_ptr<ggml_context, ggml_context_deleter>>>::_Vector_impl_data" = type { ptr, ptr, ptr }
%"struct.llama_model::impl" = type { i64, i64, %"class.std::__cxx11::basic_string", %"class.std::vector.41", %"class.std::vector.84", %"class.std::vector.84", %"class.std::vector.74", %"class.std::vector.89", %"class.std::vector.94", %"class.std::map.99", %"struct.llama_model::impl::layer_dev", %"struct.llama_model::impl::layer_dev", %"class.std::vector.105" }
%"class.std::vector.84" = type { %"struct.std::_Vector_base.85" }
%"struct.std::_Vector_base.85" = type { %"struct.std::_Vector_base<std::unique_ptr<llama_mlock>, std::allocator<std::unique_ptr<llama_mlock>>>::_Vector_impl" }
%"struct.std::_Vector_base<std::unique_ptr<llama_mlock>, std::allocator<std::unique_ptr<llama_mlock>>>::_Vector_impl" = type { %"struct.std::_Vector_base<std::unique_ptr<llama_mlock>, std::allocator<std::unique_ptr<llama_mlock>>>::_Vector_impl_data" }
%"struct.std::_Vector_base<std::unique_ptr<llama_mlock>, std::allocator<std::unique_ptr<llama_mlock>>>::_Vector_impl_data" = type { ptr, ptr, ptr }
%"class.std::vector.89" = type { %"struct.std::_Vector_base.90" }
%"struct.std::_Vector_base.90" = type { %"struct.std::_Vector_base<std::unique_ptr<ggml_backend_buffer, ggml_backend_buffer_deleter>, std::allocator<std::unique_ptr<ggml_backend_buffer, ggml_backend_buffer_deleter>>>::_Vector_impl" }
%"struct.std::_Vector_base<std::unique_ptr<ggml_backend_buffer, ggml_backend_buffer_deleter>, std::allocator<std::unique_ptr<ggml_backend_buffer, ggml_backend_buffer_deleter>>>::_Vector_impl" = type { %"struct.std::_Vector_base<std::unique_ptr<ggml_backend_buffer, ggml_backend_buffer_deleter>, std::allocator<std::unique_ptr<ggml_backend_buffer, ggml_backend_buffer_deleter>>>::_Vector_impl_data" }
%"struct.std::_Vector_base<std::unique_ptr<ggml_backend_buffer, ggml_backend_buffer_deleter>, std::allocator<std::unique_ptr<ggml_backend_buffer, ggml_backend_buffer_deleter>>>::_Vector_impl_data" = type { ptr, ptr, ptr }
%"class.std::vector.94" = type { %"struct.std::_Vector_base.95" }
%"struct.std::_Vector_base.95" = type { %"struct.std::_Vector_base<std::pair<ggml_backend_device *, ggml_backend_buffer_type *>, std::allocator<std::pair<ggml_backend_device *, ggml_backend_buffer_type *>>>::_Vector_impl" }
%"struct.std::_Vector_base<std::pair<ggml_backend_device *, ggml_backend_buffer_type *>, std::allocator<std::pair<ggml_backend_device *, ggml_backend_buffer_type *>>>::_Vector_impl" = type { %"struct.std::_Vector_base<std::pair<ggml_backend_device *, ggml_backend_buffer_type *>, std::allocator<std::pair<ggml_backend_device *, ggml_backend_buffer_type *>>>::_Vector_impl_data" }
%"struct.std::_Vector_base<std::pair<ggml_backend_device *, ggml_backend_buffer_type *>, std::allocator<std::pair<ggml_backend_device *, ggml_backend_buffer_type *>>>::_Vector_impl_data" = type { ptr, ptr, ptr }
%"class.std::map.99" = type { %"class.std::_Rb_tree.100" }
%"class.std::_Rb_tree.100" = type { %"struct.std::_Rb_tree<ggml_backend_device *, std::pair<ggml_backend_device *const, std::vector<std::pair<ggml_backend_device *, ggml_backend_buffer_type *>>>, std::_Select1st<std::pair<ggml_backend_device *const, std::vector<std::pair<ggml_backend_device *, ggml_backend_buffer_type *>>>>, std::less<ggml_backend_device *>>::_Rb_tree_impl" }
%"struct.std::_Rb_tree<ggml_backend_device *, std::pair<ggml_backend_device *const, std::vector<std::pair<ggml_backend_device *, ggml_backend_buffer_type *>>>, std::_Select1st<std::pair<ggml_backend_device *const, std::vector<std::pair<ggml_backend_device *, ggml_backend_buffer_type *>>>>, std::less<ggml_backend_device *>>::_Rb_tree_impl" = type { [8 x i8], %"struct.std::_Rb_tree_header" }
%"struct.llama_model::impl::layer_dev" = type { ptr, ptr }
%"class.std::vector.105" = type { %"struct.std::_Vector_base.106" }
%"struct.std::_Vector_base.106" = type { %"struct.std::_Vector_base<llama_model::impl::layer_dev, std::allocator<llama_model::impl::layer_dev>>::_Vector_impl" }
%"struct.std::_Vector_base<llama_model::impl::layer_dev, std::allocator<llama_model::impl::layer_dev>>::_Vector_impl" = type { %"struct.std::_Vector_base<llama_model::impl::layer_dev, std::allocator<llama_model::impl::layer_dev>>::_Vector_impl_data" }
%"struct.std::_Vector_base<llama_model::impl::layer_dev, std::allocator<llama_model::impl::layer_dev>>::_Vector_impl_data" = type { ptr, ptr, ptr }

@.str.170 = private unnamed_addr constant [74 x i8] c"vector::_M_range_check: __n (which is %zu) >= this->size() (which is %zu)\00", align 1

; Function Attrs: mustprogress nounwind uwtable
define linkonce_odr noundef nonnull align 8 dereferenceable(8) ptr @_ZNSt10_Head_baseILm0EPN11llama_model4implELb0EE7_M_headERKS3_(ptr noundef nonnull align 8 dereferenceable(8) %0) #0 comdat align 2 {
  %2 = alloca ptr, align 8
  store ptr %0, ptr %2, align 8, !tbaa !1269
  %3 = load ptr, ptr %2, align 8, !tbaa !1269
  %4 = getelementptr inbounds nuw %"struct.std::_Head_base.35", ptr %3, i32 0, i32 0
  ret ptr %4
}

; Function Attrs: mustprogress nounwind uwtable
define linkonce_odr noundef nonnull align 8 dereferenceable(8) ptr @_ZNSt11_Tuple_implILm0EJPN11llama_model4implESt14default_deleteIS1_EEE7_M_headERKS5_(ptr noundef nonnull align 8 dereferenceable(8) %0) #0 comdat align 2 {
  %2 = alloca ptr, align 8
  store ptr %0, ptr %2, align 8, !tbaa !1265
  %3 = load ptr, ptr %2, align 8, !tbaa !1265
  %4 = call noundef nonnull align 8 dereferenceable(8) ptr @_ZNSt10_Head_baseILm0EPN11llama_model4implELb0EE7_M_headERKS3_(ptr noundef nonnull align 8 dereferenceable(8) %3) #5
  ret ptr %4
}

; Function Attrs: mustprogress nounwind uwtable
define linkonce_odr noundef nonnull align 8 dereferenceable(8) ptr @_ZSt12__get_helperILm0EPN11llama_model4implEJSt14default_deleteIS1_EEERKT0_RKSt11_Tuple_implIXT_EJS5_DpT1_EE(ptr noundef nonnull align 8 dereferenceable(8) %0) #0 comdat {
  %2 = alloca ptr, align 8
  store ptr %0, ptr %2, align 8, !tbaa !1265
  %3 = load ptr, ptr %2, align 8, !tbaa !1265
  %4 = call noundef nonnull align 8 dereferenceable(8) ptr @_ZNSt11_Tuple_implILm0EJPN11llama_model4implESt14default_deleteIS1_EEE7_M_headERKS5_(ptr noundef nonnull align 8 dereferenceable(8) %3) #5
  ret ptr %4
}

; Function Attrs: mustprogress nounwind uwtable
define linkonce_odr noundef nonnull align 8 dereferenceable(8) ptr @_ZSt3getILm0EJPN11llama_model4implESt14default_deleteIS1_EEERKNSt13tuple_elementIXT_ESt5tupleIJDpT0_EEE4typeERKS9_(ptr noundef nonnull align 8 dereferenceable(8) %0) #0 comdat {
  %2 = alloca ptr, align 8
  store ptr %0, ptr %2, align 8, !tbaa !1263
  %3 = load ptr, ptr %2, align 8, !tbaa !1263
  %4 = call noundef nonnull align 8 dereferenceable(8) ptr @_ZSt12__get_helperILm0EPN11llama_model4implEJSt14default_deleteIS1_EEERKT0_RKSt11_Tuple_implIXT_EJS5_DpT1_EE(ptr noundef nonnull align 8 dereferenceable(8) %3) #5
  ret ptr %4
}

; Function Attrs: mustprogress nounwind uwtable
define linkonce_odr noundef i64 @_ZNKSt6vectorIN11llama_model4impl9layer_devESaIS2_EE4sizeEv(ptr noundef nonnull align 8 dereferenceable(24) %0) #0 comdat align 2 {
  %2 = alloca ptr, align 8
  store ptr %0, ptr %2, align 8, !tbaa !659
  %3 = load ptr, ptr %2, align 8
  %4 = getelementptr inbounds nuw %"struct.std::_Vector_base.106", ptr %3, i32 0, i32 0
  %5 = getelementptr inbounds nuw %"struct.std::_Vector_base<llama_model::impl::layer_dev, std::allocator<llama_model::impl::layer_dev>>::_Vector_impl_data", ptr %4, i32 0, i32 1
  %6 = load ptr, ptr %5, align 8, !tbaa !1255
  %7 = getelementptr inbounds nuw %"struct.std::_Vector_base.106", ptr %3, i32 0, i32 0
  %8 = getelementptr inbounds nuw %"struct.std::_Vector_base<llama_model::impl::layer_dev, std::allocator<llama_model::impl::layer_dev>>::_Vector_impl_data", ptr %7, i32 0, i32 0
  %9 = load ptr, ptr %8, align 8, !tbaa !661
  %10 = ptrtoint ptr %6 to i64
  %11 = ptrtoint ptr %9 to i64
  %12 = sub i64 %10, %11
  %13 = sdiv exact i64 %12, 16
  ret i64 %13
}

; Function Attrs: mustprogress nounwind uwtable
define linkonce_odr noundef ptr @_ZNKSt15__uniq_ptr_implIN11llama_model4implESt14default_deleteIS1_EE6_M_ptrEv(ptr noundef nonnull align 8 dereferenceable(8) %0) #0 comdat align 2 {
  %2 = alloca ptr, align 8
  store ptr %0, ptr %2, align 8, !tbaa !1261
  %3 = load ptr, ptr %2, align 8
  %4 = getelementptr inbounds nuw %"class.std::__uniq_ptr_impl.30", ptr %3, i32 0, i32 0
  %5 = call noundef nonnull align 8 dereferenceable(8) ptr @_ZSt3getILm0EJPN11llama_model4implESt14default_deleteIS1_EEERKNSt13tuple_elementIXT_ESt5tupleIJDpT0_EEE4typeERKS9_(ptr noundef nonnull align 8 dereferenceable(8) %4) #5
  %6 = load ptr, ptr %5, align 8, !tbaa !198
  ret ptr %6
}

; Function Attrs: mustprogress nounwind uwtable
define linkonce_odr noundef nonnull align 8 dereferenceable(16) ptr @_ZNSt6vectorIN11llama_model4impl9layer_devESaIS2_EEixEm(ptr noundef nonnull align 8 dereferenceable(24) %0, i64 noundef %1) #0 comdat align 2 {
  %3 = alloca ptr, align 8
  %4 = alloca i64, align 8
  store ptr %0, ptr %3, align 8, !tbaa !659
  store i64 %1, ptr %4, align 8, !tbaa !319
  %5 = load ptr, ptr %3, align 8
  %6 = getelementptr inbounds nuw %"struct.std::_Vector_base.106", ptr %5, i32 0, i32 0
  %7 = getelementptr inbounds nuw %"struct.std::_Vector_base<llama_model::impl::layer_dev, std::allocator<llama_model::impl::layer_dev>>::_Vector_impl_data", ptr %6, i32 0, i32 0
  %8 = load ptr, ptr %7, align 8, !tbaa !661
  %9 = load i64, ptr %4, align 8, !tbaa !319
  %10 = getelementptr inbounds nuw %"struct.llama_model::impl::layer_dev", ptr %8, i64 %9
  ret ptr %10
}

; Function Attrs: mustprogress uwtable
define linkonce_odr void @_ZNKSt6vectorIN11llama_model4impl9layer_devESaIS2_EE14_M_range_checkEm(ptr noundef nonnull align 8 dereferenceable(24) %0, i64 noundef %1) #4 comdat align 2 {
  %3 = alloca ptr, align 8
  %4 = alloca i64, align 8
  store ptr %0, ptr %3, align 8, !tbaa !659
  store i64 %1, ptr %4, align 8, !tbaa !319
  %5 = load ptr, ptr %3, align 8
  %6 = load i64, ptr %4, align 8, !tbaa !319
  %7 = call noundef i64 @_ZNKSt6vectorIN11llama_model4impl9layer_devESaIS2_EE4sizeEv(ptr noundef nonnull align 8 dereferenceable(24) %5) #5
  %8 = icmp uge i64 %6, %7
  br i1 %8, label %9, label %12

9:                                                ; preds = %2
  %10 = load i64, ptr %4, align 8, !tbaa !319
  %11 = call noundef i64 @_ZNKSt6vectorIN11llama_model4impl9layer_devESaIS2_EE4sizeEv(ptr noundef nonnull align 8 dereferenceable(24) %5) #5
  call void (ptr, ...) @_ZSt24__throw_out_of_range_fmtPKcz(ptr noundef @.str.170, i64 noundef %10, i64 noundef %11) #22
  unreachable

12:                                               ; preds = %2
  ret void
}

; Function Attrs: mustprogress nounwind uwtable
define linkonce_odr noundef ptr @_ZNKSt10unique_ptrIN11llama_model4implESt14default_deleteIS1_EE3getEv(ptr noundef nonnull align 8 dereferenceable(8) %0) #0 comdat align 2 {
  %2 = alloca ptr, align 8
  store ptr %0, ptr %2, align 8, !tbaa !194
  %3 = load ptr, ptr %2, align 8
  %4 = getelementptr inbounds nuw %"class.std::unique_ptr.28", ptr %3, i32 0, i32 0
  %5 = call noundef ptr @_ZNKSt15__uniq_ptr_implIN11llama_model4implESt14default_deleteIS1_EE6_M_ptrEv(ptr noundef nonnull align 8 dereferenceable(8) %4) #5
  ret ptr %5
}

; Function Attrs: mustprogress uwtable
define linkonce_odr noundef nonnull align 8 dereferenceable(16) ptr @_ZNSt6vectorIN11llama_model4impl9layer_devESaIS2_EE2atEm(ptr noundef nonnull align 8 dereferenceable(24) %0, i64 noundef %1) #4 comdat align 2 {
  %3 = alloca ptr, align 8
  %4 = alloca i64, align 8
  store ptr %0, ptr %3, align 8, !tbaa !659
  store i64 %1, ptr %4, align 8, !tbaa !319
  %5 = load ptr, ptr %3, align 8
  %6 = load i64, ptr %4, align 8, !tbaa !319
  call void @_ZNKSt6vectorIN11llama_model4impl9layer_devESaIS2_EE14_M_range_checkEm(ptr noundef nonnull align 8 dereferenceable(24) %5, i64 noundef %6)
  %7 = load i64, ptr %4, align 8, !tbaa !319
  %8 = call noundef nonnull align 8 dereferenceable(16) ptr @_ZNSt6vectorIN11llama_model4impl9layer_devESaIS2_EEixEm(ptr noundef nonnull align 8 dereferenceable(24) %5, i64 noundef %7) #5
  ret ptr %8
}

; Function Attrs: mustprogress nounwind uwtable
define linkonce_odr noundef ptr @_ZNKSt10unique_ptrIN11llama_model4implESt14default_deleteIS1_EEptEv(ptr noundef nonnull align 8 dereferenceable(8) %0) #0 comdat align 2 {
  %2 = alloca ptr, align 8
  store ptr %0, ptr %2, align 8, !tbaa !194
  %3 = load ptr, ptr %2, align 8
  %4 = call noundef ptr @_ZNKSt10unique_ptrIN11llama_model4implESt14default_deleteIS1_EE3getEv(ptr noundef nonnull align 8 dereferenceable(8) %3) #5
  ret ptr %4
}

; Function Attrs: mustprogress uwtable
define noundef ptr @_ZNK11llama_model9dev_layerEi(ptr noundef nonnull align 8 dereferenceable(6784) %0, i32 noundef %1) #4 align 2 {
  %3 = alloca ptr, align 8
  %4 = alloca i32, align 4
  store ptr %0, ptr %3, align 8, !tbaa !23
  store i32 %1, ptr %4, align 4, !tbaa !167
  %5 = load ptr, ptr %3, align 8
  %6 = getelementptr inbounds nuw %struct.llama_model, ptr %5, i32 0, i32 28
  %7 = call noundef ptr @_ZNKSt10unique_ptrIN11llama_model4implESt14default_deleteIS1_EEptEv(ptr noundef nonnull align 8 dereferenceable(8) %6) #5
  %8 = getelementptr inbounds nuw %"struct.llama_model::impl", ptr %7, i32 0, i32 12
  %9 = load i32, ptr %4, align 4, !tbaa !167
  %10 = sext i32 %9 to i64
  %11 = call noundef nonnull align 8 dereferenceable(16) ptr @_ZNSt6vectorIN11llama_model4impl9layer_devESaIS2_EE2atEm(ptr noundef nonnull align 8 dereferenceable(24) %8, i64 noundef %10)
  %12 = getelementptr inbounds nuw %"struct.llama_model::impl::layer_dev", ptr %11, i32 0, i32 0
  %13 = load ptr, ptr %12, align 8, !tbaa !333
  ret ptr %13
}