; Function Attrs: mustprogress uwtable
define noundef ptr @_ZNK11llama_model9dev_layerEi(ptr noundef nonnull readonly align 8 captures(none) dereferenceable(6784) %0, i32 noundef %1) local_unnamed_addr #3 align 2 {
  %3 = getelementptr inbounds nuw i8, ptr %0, i64 6776
  %4 = load ptr, ptr %3, align 8, !tbaa !110
  %5 = getelementptr inbounds nuw i8, ptr %4, i64 272
  %6 = sext i32 %1 to i64
  %7 = getelementptr inbounds nuw i8, ptr %4, i64 280
  %8 = load ptr, ptr %7, align 8, !tbaa !303
  %9 = load ptr, ptr %5, align 8, !tbaa !304
  %10 = ptrtoint ptr %8 to i64
  %11 = ptrtoint ptr %9 to i64
  %12 = sub i64 %10, %11
  %13 = ashr exact i64 %12, 4
  %.not.i.i = icmp ugt i64 %13, %6
  br i1 %.not.i.i, label %_ZNSt6vectorIN11llama_model4impl9layer_devESaIS2_EE2atEm.exit, label %14

14:                                               ; preds = %2
  tail call void (ptr, ...) @_ZSt24__throw_out_of_range_fmtPKcz(ptr noundef nonnull @.str.170, i64 noundef %6, i64 noundef %13) #38
  unreachable

_ZNSt6vectorIN11llama_model4impl9layer_devESaIS2_EE2atEm.exit: ; preds = %2
  %15 = getelementptr inbounds nuw %"struct.llama_model::impl::layer_dev", ptr %9, i64 %6
  %16 = load ptr, ptr %15, align 8, !tbaa !3451
  ret ptr %16
}